; ModuleID = '28/1379.c'
source_filename = "28/1379.c"
target datalayout = "e-m:e-p270:32:32-p271:32:32-p272:64:64-i64:64-f80:128-n8:16:32:64-S128"
target triple = "x86_64-pc-linux-gnu"

@.str = private unnamed_addr constant [3 x i8] c"%d\00", align 1
@.str.1 = private unnamed_addr constant [4 x i8] c",%d\00", align 1

; Function Attrs: noinline nounwind uwtable
define dso_local i32 @main() #0 {
  %1 = alloca i32, align 4
  %2 = alloca i32, align 4
  %3 = alloca i32, align 4
  %4 = alloca i32, align 4
  %5 = alloca i32, align 4
  %6 = alloca i32, align 4
  %7 = alloca i32, align 4
  %8 = alloca [300 x i32], align 16
  %9 = alloca [3000 x i8], align 16
  store i32 0, i32* %1, align 4
  store i32 0, i32* %5, align 4
  store i32 0, i32* %6, align 4
  %10 = getelementptr inbounds [3000 x i8], [3000 x i8]* %9, i64 0, i64 0
  %11 = call i32 (i8*, ...) bitcast (i32 (...)* @gets to i32 (i8*, ...)*)(i8* %10)
  store i32 0, i32* %2, align 4
  br label %12

12:                                               ; preds = %33, %0
  %13 = load i32, i32* %2, align 4
  %14 = icmp slt i32 %13, 3000
  br i1 %14, label %15, label %22

15:                                               ; preds = %12
  %16 = load i32, i32* %2, align 4
  %17 = sext i32 %16 to i64
  %18 = getelementptr inbounds [3000 x i8], [3000 x i8]* %9, i64 0, i64 %17
  %19 = load i8, i8* %18, align 1
  %20 = sext i8 %19 to i32
  %21 = icmp ne i32 %20, 0
  br label %22

22:                                               ; preds = %15, %12
  %23 = phi i1 [ false, %12 ], [ %21, %15 ]
  br i1 %23, label %24, label %36

24:                                               ; preds = %22
  %25 = load i32, i32* %2, align 4
  %26 = sext i32 %25 to i64
  %27 = getelementptr inbounds [3000 x i8], [3000 x i8]* %9, i64 0, i64 %26
  %28 = load i8, i8* %27, align 1
  %29 = sext i8 %28 to i32
  %30 = icmp eq i32 %29, 32
  br i1 %30, label %31, label %32

31:                                               ; preds = %24
  store i32 1, i32* %6, align 4
  br label %36

32:                                               ; preds = %24
  br label %33

33:                                               ; preds = %32
  %34 = load i32, i32* %2, align 4
  %35 = add nsw i32 %34, 1
  store i32 %35, i32* %2, align 4
  br label %12

36:                                               ; preds = %31, %22
  %37 = load i32, i32* %6, align 4
  %38 = icmp eq i32 %37, 0
  br i1 %38, label %39, label %43

39:                                               ; preds = %36
  %40 = getelementptr inbounds [3000 x i8], [3000 x i8]* %9, i64 0, i64 0
  %41 = call i64 @strlen(i8* %40) #3
  %42 = call i32 (i8*, ...) @printf(i8* getelementptr inbounds ([3 x i8], [3 x i8]* @.str, i64 0, i64 0), i64 %41)
  br label %43

43:                                               ; preds = %39, %36
  %44 = load i32, i32* %6, align 4
  %45 = icmp eq i32 %44, 1
  br i1 %45, label %46, label %125

46:                                               ; preds = %43
  store i32 0, i32* %2, align 4
  br label %47

47:                                               ; preds = %121, %46
  %48 = load i32, i32* %2, align 4
  %49 = icmp slt i32 %48, 3000
  br i1 %49, label %50, label %124

50:                                               ; preds = %47
  %51 = load i32, i32* %2, align 4
  %52 = sext i32 %51 to i64
  %53 = getelementptr inbounds [3000 x i8], [3000 x i8]* %9, i64 0, i64 %52
  %54 = load i8, i8* %53, align 1
  %55 = sext i8 %54 to i32
  %56 = icmp eq i32 %55, 0
  br i1 %56, label %57, label %62

57:                                               ; preds = %50
  %58 = load i32, i32* %2, align 4
  %59 = load i32, i32* %4, align 4
  %60 = sub nsw i32 %58, %59
  %61 = call i32 (i8*, ...) @printf(i8* getelementptr inbounds ([4 x i8], [4 x i8]* @.str.1, i64 0, i64 0), i32 %60)
  br label %124

62:                                               ; preds = %50
  %63 = load i32, i32* %2, align 4
  %64 = sext i32 %63 to i64
  %65 = getelementptr inbounds [3000 x i8], [3000 x i8]* %9, i64 0, i64 %64
  %66 = load i8, i8* %65, align 1
  %67 = sext i8 %66 to i32
  %68 = icmp eq i32 %67, 32
  br i1 %68, label %69, label %120

69:                                               ; preds = %62
  %70 = load i32, i32* %5, align 4
  %71 = add nsw i32 %70, 1
  store i32 %71, i32* %5, align 4
  %72 = load i32, i32* %5, align 4
  %73 = icmp eq i32 %72, 1
  br i1 %73, label %74, label %77

74:                                               ; preds = %69
  %75 = load i32, i32* %2, align 4
  %76 = call i32 (i8*, ...) @printf(i8* getelementptr inbounds ([3 x i8], [3 x i8]* @.str, i64 0, i64 0), i32 %75)
  br label %77

77:                                               ; preds = %74, %69
  %78 = load i32, i32* %5, align 4
  %79 = icmp sgt i32 %78, 1
  br i1 %79, label %80, label %91

80:                                               ; preds = %77
  %81 = load i32, i32* %2, align 4
  %82 = load i32, i32* %4, align 4
  %83 = sub nsw i32 %81, %82
  %84 = icmp sgt i32 %83, 0
  br i1 %84, label %85, label %90

85:                                               ; preds = %80
  %86 = load i32, i32* %2, align 4
  %87 = load i32, i32* %4, align 4
  %88 = sub nsw i32 %86, %87
  %89 = call i32 (i8*, ...) @printf(i8* getelementptr inbounds ([4 x i8], [4 x i8]* @.str.1, i64 0, i64 0), i32 %88)
  br label %90

90:                                               ; preds = %85, %80
  br label %91

91:                                               ; preds = %90, %77
  %92 = load i32, i32* %2, align 4
  %93 = add nsw i32 %92, 1
  store i32 %93, i32* %3, align 4
  br label %94

94:                                               ; preds = %116, %91
  %95 = load i32, i32* %3, align 4
  %96 = icmp slt i32 %95, 3000
  br i1 %96, label %97, label %104

97:                                               ; preds = %94
  %98 = load i32, i32* %3, align 4
  %99 = sext i32 %98 to i64
  %100 = getelementptr inbounds [3000 x i8], [3000 x i8]* %9, i64 0, i64 %99
  %101 = load i8, i8* %100, align 1
  %102 = sext i8 %101 to i32
  %103 = icmp ne i32 %102, 0
  br label %104

104:                                              ; preds = %97, %94
  %105 = phi i1 [ false, %94 ], [ %103, %97 ]
  br i1 %105, label %106, label %119

106:                                              ; preds = %104
  %107 = load i32, i32* %3, align 4
  %108 = sext i32 %107 to i64
  %109 = getelementptr inbounds [3000 x i8], [3000 x i8]* %9, i64 0, i64 %108
  %110 = load i8, i8* %109, align 1
  %111 = sext i8 %110 to i32
  %112 = icmp ne i32 %111, 32
  br i1 %112, label %113, label %115

113:                                              ; preds = %106
  %114 = load i32, i32* %3, align 4
  store i32 %114, i32* %4, align 4
  br label %119

115:                                              ; preds = %106
  br label %116

116:                                              ; preds = %115
  %117 = load i32, i32* %3, align 4
  %118 = add nsw i32 %117, 1
  store i32 %118, i32* %3, align 4
  br label %94

119:                                              ; preds = %113, %104
  br label %120

120:                                              ; preds = %119, %62
  br label %121

121:                                              ; preds = %120
  %122 = load i32, i32* %2, align 4
  %123 = add nsw i32 %122, 1
  store i32 %123, i32* %2, align 4
  br label %47

124:                                              ; preds = %57, %47
  br label %125

125:                                              ; preds = %124, %43
  ret i32 0
}

declare dso_local i32 @gets(...) #1

declare dso_local i32 @printf(i8*, ...) #1

; Function Attrs: nounwind readonly
declare dso_local i64 @strlen(i8*) #2


!llvm.module.flags = !{!0}
!llvm.ident = !{!1}

!0 = !{i32 1, !"wchar_size", i32 4}
!1 = !{!"clang version 10.0.0-4ubuntu1 "}
